; Function Attrs: mustprogress nounwind uwtable
define internal noundef zeroext i1 @_ZN4llvm20MCAsmParserExtension15HandleDirectiveIN12_GLOBAL__N_115DarwinAsmParserETnMT_FbNS_9StringRefENS_5SMLocEEXadL_ZNS3_24parseDirectiveDumpOrLoadES5_S6_EEEEbPS0_S5_S6_(ptr nocapture noundef readonly %0, ptr nocapture readonly %1, i64 %2, ptr %3) #0 align 2 {
  %5 = alloca %"class.llvm::Twine", align 8
  %6 = alloca %"class.llvm::Twine", align 8
  %7 = alloca %"class.llvm::Twine", align 8
  %8 = alloca %"class.llvm::Twine", align 8
  call void @llvm.lifetime.start.p0(i64 40, ptr nonnull %5)
  call void @llvm.lifetime.start.p0(i64 40, ptr nonnull %6)
  call void @llvm.lifetime.start.p0(i64 40, ptr nonnull %7)
  call void @llvm.lifetime.start.p0(i64 40, ptr nonnull %8)
  %.not.i.i = icmp eq i64 %2, 5
  br i1 %.not.i.i, label %9, label %_ZN4llvmeqENS_9StringRefES0_.exit.i

9:                                                ; preds = %4
  %bcmp.i.i = tail call i32 @bcmp(ptr noundef nonnull readonly dereferenceable(5) %1, ptr noundef nonnull dereferenceable(5) @.str.5, i64 5)
  %10 = icmp eq i32 %bcmp.i.i, 0
  br label %_ZN4llvmeqENS_9StringRefES0_.exit.i

_ZN4llvmeqENS_9StringRefES0_.exit.i:              ; preds = %9, %4
  %.0.i.i = phi i1 [ %10, %9 ], [ false, %4 ]
  %11 = getelementptr inbounds nuw i8, ptr %0, i64 8
  %12 = load ptr, ptr %11, align 8
  %13 = load ptr, ptr %12, align 8
  %14 = getelementptr inbounds i8, ptr %13, i64 40
  %15 = load ptr, ptr %14, align 8
  %16 = tail call noundef nonnull align 8 dereferenceable(144) ptr %15(ptr noundef nonnull align 8 dereferenceable(34) %12) #15
  %17 = getelementptr inbounds nuw i8, ptr %16, i64 8
  %18 = load ptr, ptr %17, align 8
  %19 = load i32, ptr %18, align 8
  %.not.i = icmp eq i32 %19, 3
  br i1 %.not.i, label %25, label %20

20:                                               ; preds = %_ZN4llvmeqENS_9StringRefES0_.exit.i
  %21 = getelementptr inbounds nuw i8, ptr %5, i64 32
  %22 = getelementptr inbounds nuw i8, ptr %5, i64 33
  store i8 1, ptr %22, align 1
  store ptr @.str.82, ptr %5, align 8
  store i8 3, ptr %21, align 8
  %23 = load ptr, ptr %11, align 8
  %24 = call noundef zeroext i1 @_ZN4llvm11MCAsmParser8TokErrorERKNS_5TwineENS_7SMRangeE(ptr noundef nonnull align 8 dereferenceable(34) %23, ptr noundef nonnull align 8 dereferenceable(34) %5, ptr null, ptr null) #15
  br label %_ZN12_GLOBAL__N_115DarwinAsmParser24parseDirectiveDumpOrLoadEN4llvm9StringRefENS1_5SMLocE.exit

25:                                               ; preds = %_ZN4llvmeqENS_9StringRefES0_.exit.i
  %26 = load ptr, ptr %11, align 8
  %27 = load ptr, ptr %26, align 8
  %28 = getelementptr inbounds i8, ptr %27, i64 184
  %29 = load ptr, ptr %28, align 8
  %30 = tail call noundef nonnull align 8 dereferenceable(40) ptr %29(ptr noundef nonnull align 8 dereferenceable(34) %26) #15
  %31 = load ptr, ptr %11, align 8
  %32 = load ptr, ptr %31, align 8
  %33 = getelementptr inbounds i8, ptr %32, i64 40
  %34 = load ptr, ptr %33, align 8
  %35 = tail call noundef nonnull align 8 dereferenceable(144) ptr %34(ptr noundef nonnull align 8 dereferenceable(34) %31) #15
  %36 = getelementptr inbounds nuw i8, ptr %35, i64 8
  %37 = load ptr, ptr %36, align 8
  %38 = load i32, ptr %37, align 8
  %.not7.i = icmp eq i32 %38, 9
  br i1 %.not7.i, label %44, label %39

39:                                               ; preds = %25
  %40 = getelementptr inbounds nuw i8, ptr %6, i64 32
  %41 = getelementptr inbounds nuw i8, ptr %6, i64 33
  store i8 1, ptr %41, align 1
  store ptr @.str.83, ptr %6, align 8
  store i8 3, ptr %40, align 8
  %42 = load ptr, ptr %11, align 8
  %43 = call noundef zeroext i1 @_ZN4llvm11MCAsmParser8TokErrorERKNS_5TwineENS_7SMRangeE(ptr noundef nonnull align 8 dereferenceable(34) %42, ptr noundef nonnull align 8 dereferenceable(34) %6, ptr null, ptr null) #15
  br label %_ZN12_GLOBAL__N_115DarwinAsmParser24parseDirectiveDumpOrLoadEN4llvm9StringRefENS1_5SMLocE.exit

44:                                               ; preds = %25
  %45 = load ptr, ptr %11, align 8
  %46 = load ptr, ptr %45, align 8
  %47 = getelementptr inbounds i8, ptr %46, i64 184
  %48 = load ptr, ptr %47, align 8
  %49 = tail call noundef nonnull align 8 dereferenceable(40) ptr %48(ptr noundef nonnull align 8 dereferenceable(34) %45) #15
  br i1 %.0.i.i, label %50, label %58

50:                                               ; preds = %44
  %51 = getelementptr inbounds nuw i8, ptr %7, i64 32
  %52 = getelementptr inbounds nuw i8, ptr %7, i64 33
  store i8 1, ptr %52, align 1
  store ptr @.str.84, ptr %7, align 8
  store i8 3, ptr %51, align 8
  %53 = load ptr, ptr %11, align 8
  %54 = load ptr, ptr %53, align 8
  %55 = getelementptr inbounds i8, ptr %54, i64 168
  %56 = load ptr, ptr %55, align 8
  %57 = call noundef zeroext i1 %56(ptr noundef nonnull align 8 dereferenceable(34) %53, ptr %3, ptr noundef nonnull align 8 dereferenceable(34) %7, ptr null, ptr null) #15
  br label %_ZN12_GLOBAL__N_115DarwinAsmParser24parseDirectiveDumpOrLoadEN4llvm9StringRefENS1_5SMLocE.exit

58:                                               ; preds = %44
  %59 = getelementptr inbounds nuw i8, ptr %8, i64 32
  %60 = getelementptr inbounds nuw i8, ptr %8, i64 33
  store i8 1, ptr %60, align 1
  store ptr @.str.85, ptr %8, align 8
  store i8 3, ptr %59, align 8
  %61 = load ptr, ptr %11, align 8
  %62 = load ptr, ptr %61, align 8
  %63 = getelementptr inbounds i8, ptr %62, i64 168
  %64 = load ptr, ptr %63, align 8
  %65 = call noundef zeroext i1 %64(ptr noundef nonnull align 8 dereferenceable(34) %61, ptr %3, ptr noundef nonnull align 8 dereferenceable(34) %8, ptr null, ptr null) #15
  br label %_ZN12_GLOBAL__N_115DarwinAsmParser24parseDirectiveDumpOrLoadEN4llvm9StringRefENS1_5SMLocE.exit

_ZN12_GLOBAL__N_115DarwinAsmParser24parseDirectiveDumpOrLoadEN4llvm9StringRefENS1_5SMLocE.exit: ; preds = %20, %39, %50, %58
  %.0.i = phi i1 [ %24, %20 ], [ %43, %39 ], [ %57, %50 ], [ %65, %58 ]
  call void @llvm.lifetime.end.p0(i64 40, ptr nonnull %5)
  call void @llvm.lifetime.end.p0(i64 40, ptr nonnull %6)
  call void @llvm.lifetime.end.p0(i64 40, ptr nonnull %7)
  call void @llvm.lifetime.end.p0(i64 40, ptr nonnull %8)
  ret i1 %.0.i
}